; Function Attrs: mustprogress uwtable
define void @_ZN6icu_7717DateFormatSymbols12setYearNamesEPKNS_13UnicodeStringEiNS0_13DtContextTypeENS0_11DtWidthTypeE(ptr noundef nonnull align 8 captures(none) dereferenceable(976) %0, ptr noundef %1, i32 noundef %2, i32 noundef %3, i32 noundef %4) local_unnamed_addr #1 align 2 personality ptr @__gxx_personality_v0 {
  %6 = or i32 %4, %3
  %or.cond = icmp eq i32 %6, 0
  br i1 %or.cond, label %7, label %41

7:                                                ; preds = %5
  %8 = getelementptr inbounds nuw i8, ptr %0, i64 488
  %9 = load ptr, ptr %8, align 8, !tbaa !84
  %10 = icmp eq ptr %9, null
  br i1 %10, label %19, label %11

11:                                               ; preds = %7
  %12 = getelementptr inbounds i8, ptr %9, i64 -8
  %13 = load i64, ptr %12, align 8
  %14 = icmp eq i64 %13, 0
  br i1 %14, label %.loopexit, label %.preheader.preheader

.preheader.preheader:                             ; preds = %11
  %15 = getelementptr inbounds %"class.icu_77::UnicodeString", ptr %9, i64 %13
  br label %.preheader

.preheader:                                       ; preds = %.preheader.preheader, %.preheader
  %16 = phi ptr [ %17, %.preheader ], [ %15, %.preheader.preheader ]
  %17 = getelementptr inbounds i8, ptr %16, i64 -64
  tail call void @_ZN6icu_7713UnicodeStringD1Ev(ptr noundef nonnull align 8 dereferenceable(64) %17) #19
  %18 = icmp eq ptr %17, %9
  br i1 %18, label %.loopexit, label %.preheader

.loopexit:                                        ; preds = %.preheader, %11
  tail call void @_ZN6icu_777UMemorydaEPv(ptr noundef nonnull %12) #19
  br label %19

19:                                               ; preds = %.loopexit, %7
  %20 = tail call i32 @llvm.umax.i32(i32 %2, i32 1)
  %21 = sext i32 %20 to i64
  %22 = icmp slt i32 %2, 0
  %23 = shl nsw i64 %21, 6
  %24 = or disjoint i64 %23, 8
  %25 = select i1 %22, i64 -1, i64 %24
  %26 = tail call noundef ptr @_ZN6icu_777UMemorynaEm(i64 noundef %25) #19
  %27 = icmp eq ptr %26, null
  br i1 %27, label %_ZN6icu_77L21newUnicodeStringArrayEm.exit, label %28

28:                                               ; preds = %19
  store i64 %21, ptr %26, align 8
  %.ptr11.i = getelementptr inbounds nuw i8, ptr %26, i64 8
  %29 = getelementptr inbounds %"class.icu_77::UnicodeString", ptr %.ptr11.i, i64 %21
  br label %30

30:                                               ; preds = %30, %28
  %.idx.i = phi i64 [ 8, %28 ], [ %.add.i, %30 ]
  %.ptr.ptr.i = getelementptr inbounds nuw i8, ptr %26, i64 %.idx.i
  store ptr getelementptr inbounds nuw inrange(-16, 88) (i8, ptr @_ZTVN6icu_7713UnicodeStringE, i64 16), ptr %.ptr.ptr.i, align 8, !tbaa !15
  %31 = getelementptr inbounds nuw i8, ptr %.ptr.ptr.i, i64 8
  store i16 2, ptr %31, align 8, !tbaa !23
  %.add.i = add nuw nsw i64 %.idx.i, 64
  %.ptr10.i = getelementptr inbounds nuw i8, ptr %26, i64 %.add.i
  %32 = icmp eq ptr %.ptr10.i, %29
  br i1 %32, label %_ZN6icu_77L21newUnicodeStringArrayEm.exit, label %30

_ZN6icu_77L21newUnicodeStringArrayEm.exit:        ; preds = %30, %19
  %33 = phi ptr [ null, %19 ], [ %.ptr11.i, %30 ]
  store ptr %33, ptr %8, align 8, !tbaa !84
  %34 = icmp sgt i32 %2, 0
  br i1 %34, label %.lr.ph.i, label %_ZL14uprv_arrayCopyPKN6icu_7713UnicodeStringEPS0_i.exit

.lr.ph.i:                                         ; preds = %_ZN6icu_77L21newUnicodeStringArrayEm.exit, %.lr.ph.i
  %.06.i = phi i32 [ %35, %.lr.ph.i ], [ %2, %_ZN6icu_77L21newUnicodeStringArrayEm.exit ]
  %.025.i = phi ptr [ %37, %.lr.ph.i ], [ %33, %_ZN6icu_77L21newUnicodeStringArrayEm.exit ]
  %.034.i = phi ptr [ %36, %.lr.ph.i ], [ %1, %_ZN6icu_77L21newUnicodeStringArrayEm.exit ]
  %35 = add nsw i32 %.06.i, -1
  %36 = getelementptr inbounds nuw i8, ptr %.034.i, i64 64
  %37 = getelementptr inbounds nuw i8, ptr %.025.i, i64 64
  %38 = tail call noundef nonnull align 8 dereferenceable(64) ptr @_ZN6icu_7713UnicodeStringaSERKS0_(ptr noundef nonnull align 8 dereferenceable(64) %.025.i, ptr noundef nonnull align 8 dereferenceable(64) %.034.i)
  %39 = icmp samesign ugt i32 %.06.i, 1
  br i1 %39, label %.lr.ph.i, label %_ZL14uprv_arrayCopyPKN6icu_7713UnicodeStringEPS0_i.exit, !llvm.loop !158

_ZL14uprv_arrayCopyPKN6icu_7713UnicodeStringEPS0_i.exit: ; preds = %.lr.ph.i, %_ZN6icu_77L21newUnicodeStringArrayEm.exit
  %40 = getelementptr inbounds nuw i8, ptr %0, i64 496
  store i32 %2, ptr %40, align 8, !tbaa !85
  br label %41

41:                                               ; preds = %_ZL14uprv_arrayCopyPKN6icu_7713UnicodeStringEPS0_i.exit, %5
  ret void
}